target datalayout = "e-m:e-p270:32:32-p271:32:32-p272:64:64-i64:64-i128:128-f80:128-n8:16:32:64-S128"
target triple = "x86_64-pc-linux-gnu"

%class.ref_manager_wrapper = type { ptr }
%class.expr_abstractor = type { ptr, %class.ref_vector, %class.ptr_vector, %class.ptr_vector, %class.obj_map }
%class.ref_vector = type { %class.ref_vector_core }
%class.ref_vector_core = type { %class.ref_manager_wrapper, %class.ptr_vector }
%class.ptr_vector = type { %class.vector }
%class.vector = type { ptr }
%class.obj_map = type { %class.core_hashtable }
%class.core_hashtable = type <{ ptr, i32, i32, i32, [4 x i8] }>
%"struct.obj_map<expr, expr *>::key_data" = type { ptr, ptr }
%struct.obj_hash = type { i8 }
%struct.default_eq = type { i8 }
%"class.obj_map<expr, expr *>::obj_map_entry" = type { %"struct.obj_map<expr, expr *>::key_data" }

; Function Attrs: mustprogress nounwind uwtable
define linkonce_odr hidden void @_ZN7obj_mapI4exprPS0_E8key_dataC2Ev(ptr noundef nonnull align 8 dereferenceable(16) %0) unnamed_addr #6 comdat align 2 {
  %2 = alloca ptr, align 8
  store ptr %0, ptr %2, align 8, !tbaa !107
  %3 = load ptr, ptr %2, align 8
  %4 = getelementptr inbounds nuw %"struct.obj_map<expr, expr *>::key_data", ptr %3, i32 0, i32 0
  store ptr null, ptr %4, align 8, !tbaa !109
  %5 = getelementptr inbounds nuw %"struct.obj_map<expr, expr *>::key_data", ptr %3, i32 0, i32 1
  store ptr null, ptr %5, align 8, !tbaa !60
  ret void
}

; Function Attrs: mustprogress nounwind uwtable
define linkonce_odr hidden void @_ZNSt12_Destroy_auxILb1EE9__destroyIPN7obj_mapI4exprPS3_E13obj_map_entryEEEvT_S8_(ptr noundef %0, ptr noundef %1) #6 comdat align 2 {
  %3 = alloca ptr, align 8
  %4 = alloca ptr, align 8
  store ptr %0, ptr %3, align 8, !tbaa !59
  store ptr %1, ptr %4, align 8, !tbaa !59
  ret void
}

; Function Attrs: inlinehint mustprogress nounwind uwtable
define linkonce_odr hidden void @_ZN7obj_mapI4exprPS0_E13obj_map_entryC2Ev(ptr noundef nonnull align 8 dereferenceable(16) %0) unnamed_addr #7 comdat align 2 {
  %2 = alloca ptr, align 8
  store ptr %0, ptr %2, align 8, !tbaa !59
  %3 = load ptr, ptr %2, align 8
  %4 = getelementptr inbounds nuw %"class.obj_map<expr, expr *>::obj_map_entry", ptr %3, i32 0, i32 0
  call void @_ZN7obj_mapI4exprPS0_E8key_dataC2Ev(ptr noundef nonnull align 8 dereferenceable(16) %4) #3
  ret void
}

; Function Attrs: noinline noreturn nounwind uwtable
define linkonce_odr hidden void @__clang_call_terminate(ptr noundef %0) #9 comdat {
  %2 = call ptr @__cxa_begin_catch(ptr %0) #3
  call void @_ZSt9terminatev() #18
  unreachable
}

; Function Attrs: inlinehint mustprogress uwtable
define linkonce_odr hidden void @_ZSt8_DestroyIPN7obj_mapI4exprPS1_E13obj_map_entryEEvT_S6_(ptr noundef %0, ptr noundef %1) #8 comdat {
  %3 = alloca ptr, align 8
  %4 = alloca ptr, align 8
  store ptr %0, ptr %3, align 8, !tbaa !59
  store ptr %1, ptr %4, align 8, !tbaa !59
  %5 = load ptr, ptr %3, align 8, !tbaa !59
  %6 = load ptr, ptr %4, align 8, !tbaa !59
  call void @_ZNSt12_Destroy_auxILb1EE9__destroyIPN7obj_mapI4exprPS3_E13obj_map_entryEEEvT_S8_(ptr noundef %5, ptr noundef %6)
  ret void
}

; Function Attrs: inlinehint mustprogress nounwind uwtable
define linkonce_odr hidden void @_ZSt18_Construct_novalueIN7obj_mapI4exprPS1_E13obj_map_entryEEvPT_(ptr noundef %0) #7 comdat {
  %2 = alloca ptr, align 8
  store ptr %0, ptr %2, align 8, !tbaa !59
  %3 = load ptr, ptr %2, align 8, !tbaa !59
  call void @_ZN7obj_mapI4exprPS0_E13obj_map_entryC2Ev(ptr noundef nonnull align 8 dereferenceable(16) %3) #3
  ret void
}

; Function Attrs: mustprogress uwtable
define linkonce_odr hidden noundef ptr @_ZNSt35__uninitialized_default_novalue_n_1ILb0EE26__uninit_default_novalue_nIPN7obj_mapI4exprPS3_E13obj_map_entryEjEET_S8_T0_(ptr noundef %0, i32 noundef %1) #4 comdat align 2 personality ptr @__gxx_personality_v0 {
  %3 = alloca ptr, align 8
  %4 = alloca i32, align 4
  %5 = alloca ptr, align 8
  %6 = alloca ptr, align 8
  %7 = alloca i32, align 4
  store ptr %0, ptr %3, align 8, !tbaa !59
  store i32 %1, ptr %4, align 4, !tbaa !8
  call void @llvm.lifetime.start.p0(i64 8, ptr %5) #3
  %8 = load ptr, ptr %3, align 8, !tbaa !59
  store ptr %8, ptr %5, align 8, !tbaa !59
  br label %9

9:                                                ; preds = %15, %2
  %10 = load i32, ptr %4, align 4, !tbaa !8
  %11 = icmp ugt i32 %10, 0
  br i1 %11, label %12, label %30

12:                                               ; preds = %9
  %13 = load ptr, ptr %5, align 8, !tbaa !59
  invoke void @_ZSt18_Construct_novalueIN7obj_mapI4exprPS1_E13obj_map_entryEEvPT_(ptr noundef %13)
          to label %14 unwind label %20

14:                                               ; preds = %12
  br label %15

15:                                               ; preds = %14
  %16 = load i32, ptr %4, align 4, !tbaa !8
  %17 = add i32 %16, -1
  store i32 %17, ptr %4, align 4, !tbaa !8
  %18 = load ptr, ptr %5, align 8, !tbaa !59
  %19 = getelementptr inbounds nuw %"class.obj_map<expr, expr *>::obj_map_entry", ptr %18, i32 1
  store ptr %19, ptr %5, align 8, !tbaa !59
  br label %9, !llvm.loop !106

20:                                               ; preds = %12
  %21 = landingpad { ptr, i32 }
          catch ptr null
  %22 = extractvalue { ptr, i32 } %21, 0
  store ptr %22, ptr %6, align 8
  %23 = extractvalue { ptr, i32 } %21, 1
  store i32 %23, ptr %7, align 4
  br label %24

24:                                               ; preds = %20
  %25 = load ptr, ptr %6, align 8
  %26 = call ptr @__cxa_begin_catch(ptr %25) #3
  %27 = load ptr, ptr %3, align 8, !tbaa !59
  %28 = load ptr, ptr %5, align 8, !tbaa !59
  invoke void @_ZSt8_DestroyIPN7obj_mapI4exprPS1_E13obj_map_entryEEvT_S6_(ptr noundef %27, ptr noundef %28)
          to label %29 unwind label %32

29:                                               ; preds = %24
  invoke void @__cxa_rethrow() #19
          to label %46 unwind label %32

30:                                               ; preds = %9
  %31 = load ptr, ptr %5, align 8, !tbaa !59
  call void @llvm.lifetime.end.p0(i64 8, ptr %5) #3
  ret ptr %31

32:                                               ; preds = %29, %24
  %33 = landingpad { ptr, i32 }
          cleanup
  %34 = extractvalue { ptr, i32 } %33, 0
  store ptr %34, ptr %6, align 8
  %35 = extractvalue { ptr, i32 } %33, 1
  store i32 %35, ptr %7, align 4
  invoke void @__cxa_end_catch()
          to label %36 unwind label %43

36:                                               ; preds = %32
  call void @llvm.lifetime.end.p0(i64 8, ptr %5) #3
  br label %38

37:                                               ; No predecessors!
  unreachable

38:                                               ; preds = %36
  %39 = load ptr, ptr %6, align 8
  %40 = load i32, ptr %7, align 4
  %41 = insertvalue { ptr, i32 } poison, ptr %39, 0
  %42 = insertvalue { ptr, i32 } %41, i32 %40, 1
  resume { ptr, i32 } %42

43:                                               ; preds = %32
  %44 = landingpad { ptr, i32 }
          catch ptr null
  %45 = extractvalue { ptr, i32 } %44, 0
  call void @__clang_call_terminate(ptr %45) #18
  unreachable

46:                                               ; preds = %29
  unreachable
}

; Function Attrs: inlinehint mustprogress uwtable
define linkonce_odr hidden noundef ptr @_ZSt33__uninitialized_default_novalue_nIPN7obj_mapI4exprPS1_E13obj_map_entryEjET_S6_T0_(ptr noundef %0, i32 noundef %1) #8 comdat {
  %3 = alloca ptr, align 8
  %4 = alloca i32, align 4
  store ptr %0, ptr %3, align 8, !tbaa !59
  store i32 %1, ptr %4, align 4, !tbaa !8
  %5 = load ptr, ptr %3, align 8, !tbaa !59
  %6 = load i32, ptr %4, align 4, !tbaa !8
  %7 = call noundef ptr @_ZNSt35__uninitialized_default_novalue_n_1ILb0EE26__uninit_default_novalue_nIPN7obj_mapI4exprPS3_E13obj_map_entryEjEET_S8_T0_(ptr noundef %5, i32 noundef %6)
  ret ptr %7
}

; Function Attrs: inlinehint mustprogress uwtable
define linkonce_odr hidden noundef ptr @_ZSt33uninitialized_default_construct_nIPN7obj_mapI4exprPS1_E13obj_map_entryEjET_S6_T0_(ptr noundef %0, i32 noundef %1) #8 comdat {
  %3 = alloca ptr, align 8
  %4 = alloca i32, align 4
  store ptr %0, ptr %3, align 8, !tbaa !59
  store i32 %1, ptr %4, align 4, !tbaa !8
  %5 = load ptr, ptr %3, align 8, !tbaa !59
  %6 = load i32, ptr %4, align 4, !tbaa !8
  %7 = call noundef ptr @_ZSt33__uninitialized_default_novalue_nIPN7obj_mapI4exprPS1_E13obj_map_entryEjET_S6_T0_(ptr noundef %5, i32 noundef %6)
  ret ptr %7
}

; Function Attrs: mustprogress uwtable
define linkonce_odr hidden noalias noundef ptr @_Z10alloc_vectIN7obj_mapI4exprPS1_E13obj_map_entryEEPT_j(i32 noundef %0) #4 comdat {
  %2 = alloca i32, align 4
  %3 = alloca ptr, align 8
  store i32 %0, ptr %2, align 4, !tbaa !8
  call void @llvm.lifetime.start.p0(i64 8, ptr %3) #3
  %4 = load i32, ptr %2, align 4, !tbaa !8
  %5 = zext i32 %4 to i64
  %6 = mul i64 16, %5
  %7 = call noalias noundef ptr @_ZN6memory8allocateEm(i64 noundef %6)
  store ptr %7, ptr %3, align 8, !tbaa !59
  %8 = load ptr, ptr %3, align 8, !tbaa !59
  %9 = load i32, ptr %2, align 4, !tbaa !8
  %10 = call noundef ptr @_ZSt33uninitialized_default_construct_nIPN7obj_mapI4exprPS1_E13obj_map_entryEjET_S6_T0_(ptr noundef %8, i32 noundef %9)
  %11 = load ptr, ptr %3, align 8, !tbaa !59
  call void @llvm.lifetime.end.p0(i64 8, ptr %3) #3
  ret ptr %11
}

; Function Attrs: mustprogress uwtable
define linkonce_odr hidden noundef ptr @_ZN14core_hashtableIN7obj_mapI4exprPS1_E13obj_map_entryE8obj_hashINS3_8key_dataEE10default_eqIS6_EE11alloc_tableEj(ptr noundef nonnull align 8 dereferenceable(20) %0, i32 noundef %1) #4 comdat align 2 {
  %3 = alloca ptr, align 8
  %4 = alloca i32, align 4
  %5 = alloca ptr, align 8
  store ptr %0, ptr %3, align 8, !tbaa !96
  store i32 %1, ptr %4, align 4, !tbaa !8
  call void @llvm.lifetime.start.p0(i64 8, ptr %5) #3
  %6 = load i32, ptr %4, align 4, !tbaa !8
  %7 = call noalias noundef ptr @_Z10alloc_vectIN7obj_mapI4exprPS1_E13obj_map_entryEEPT_j(i32 noundef %6)
  store ptr %7, ptr %5, align 8, !tbaa !59
  %8 = load ptr, ptr %5, align 8, !tbaa !59
  call void @llvm.lifetime.end.p0(i64 8, ptr %5) #3
  ret ptr %8
}

; Function Attrs: mustprogress uwtable
define linkonce_odr hidden void @_ZN14core_hashtableIN7obj_mapI4exprPS1_E13obj_map_entryE8obj_hashINS3_8key_dataEE10default_eqIS6_EEC2EjRKS7_RKS9_(ptr noundef nonnull align 8 dereferenceable(20) %0, i32 noundef %1, ptr noundef nonnull align 1 dereferenceable(1) %2, ptr noundef nonnull align 1 dereferenceable(1) %3) unnamed_addr #4 comdat align 2 {
  %5 = alloca ptr, align 8
  %6 = alloca i32, align 4
  %7 = alloca ptr, align 8
  %8 = alloca ptr, align 8
  store ptr %0, ptr %5, align 8, !tbaa !96
  store i32 %1, ptr %6, align 4, !tbaa !8
  store ptr %2, ptr %7, align 8, !tbaa !98
  store ptr %3, ptr %8, align 8, !tbaa !100
  %9 = load ptr, ptr %5, align 8
  %10 = load i32, ptr %6, align 4, !tbaa !8
  %11 = call noundef ptr @_ZN14core_hashtableIN7obj_mapI4exprPS1_E13obj_map_entryE8obj_hashINS3_8key_dataEE10default_eqIS6_EE11alloc_tableEj(ptr noundef nonnull align 8 dereferenceable(20) %9, i32 noundef %10)
  %12 = getelementptr inbounds nuw %class.core_hashtable, ptr %9, i32 0, i32 0
  store ptr %11, ptr %12, align 8, !tbaa !102
  %13 = load i32, ptr %6, align 4, !tbaa !8
  %14 = getelementptr inbounds nuw %class.core_hashtable, ptr %9, i32 0, i32 1
  store i32 %13, ptr %14, align 8, !tbaa !103
  %15 = getelementptr inbounds nuw %class.core_hashtable, ptr %9, i32 0, i32 2
  store i32 0, ptr %15, align 4, !tbaa !104
  %16 = getelementptr inbounds nuw %class.core_hashtable, ptr %9, i32 0, i32 3
  store i32 0, ptr %16, align 8, !tbaa !105
  ret void
}

; Function Attrs: mustprogress nounwind uwtable
define linkonce_odr hidden void @_ZN6vectorIP4exprLb0EjEC2Ev(ptr noundef nonnull align 8 dereferenceable(8) %0) unnamed_addr #6 comdat align 2 {
  %2 = alloca ptr, align 8
  store ptr %0, ptr %2, align 8, !tbaa !44
  %3 = load ptr, ptr %2, align 8
  %4 = getelementptr inbounds nuw %class.vector, ptr %3, i32 0, i32 0
  store ptr null, ptr %4, align 8, !tbaa !46
  ret void
}

; Function Attrs: mustprogress nounwind uwtable
define linkonce_odr hidden void @_ZN15ref_vector_coreI4expr19ref_manager_wrapperIS0_11ast_managerEEC2ERKS3_(ptr noundef nonnull align 8 dereferenceable(16) %0, ptr noundef nonnull align 8 dereferenceable(8) %1) unnamed_addr #6 comdat align 2 {
  %3 = alloca ptr, align 8
  %4 = alloca ptr, align 8
  store ptr %0, ptr %3, align 8, !tbaa !47
  store ptr %1, ptr %4, align 8, !tbaa !86
  %5 = load ptr, ptr %3, align 8
  %6 = load ptr, ptr %4, align 8, !tbaa !86
  call void @llvm.memcpy.p0.p0.i64(ptr align 8 %5, ptr align 8 %6, i64 8, i1 false), !tbaa.struct !95
  %7 = getelementptr inbounds nuw %class.ref_vector_core, ptr %5, i32 0, i32 1
  call void @_ZN10ptr_vectorI4exprEC2Ev(ptr noundef nonnull align 8 dereferenceable(8) %7) #3
  ret void
}

; Function Attrs: mustprogress nounwind uwtable
define linkonce_odr hidden void @_ZN19ref_manager_wrapperI4expr11ast_managerEC2ERS1_(ptr noundef nonnull align 8 dereferenceable(8) %0, ptr noundef nonnull align 8 dereferenceable(976) %1) unnamed_addr #6 comdat align 2 {
  %3 = alloca ptr, align 8
  %4 = alloca ptr, align 8
  store ptr %0, ptr %3, align 8, !tbaa !86
  store ptr %1, ptr %4, align 8, !tbaa !65
  %5 = load ptr, ptr %3, align 8
  %6 = getelementptr inbounds nuw %class.ref_manager_wrapper, ptr %5, i32 0, i32 0
  %7 = load ptr, ptr %4, align 8, !tbaa !65
  store ptr %7, ptr %6, align 8, !tbaa !65
  ret void
}

; Function Attrs: mustprogress uwtable
define linkonce_odr hidden void @_ZN7obj_mapI4exprPS0_EC2Ev(ptr noundef nonnull align 8 dereferenceable(24) %0) unnamed_addr #4 comdat align 2 {
  %2 = alloca ptr, align 8
  %3 = alloca %struct.obj_hash, align 1
  %4 = alloca %struct.default_eq, align 1
  store ptr %0, ptr %2, align 8, !tbaa !49
  %5 = load ptr, ptr %2, align 8
  %6 = getelementptr inbounds nuw %class.obj_map, ptr %5, i32 0, i32 0
  call void @llvm.lifetime.start.p0(i64 1, ptr %3) #3
  call void @llvm.lifetime.start.p0(i64 1, ptr %4) #3
  call void @_ZN14core_hashtableIN7obj_mapI4exprPS1_E13obj_map_entryE8obj_hashINS3_8key_dataEE10default_eqIS6_EEC2EjRKS7_RKS9_(ptr noundef nonnull align 8 dereferenceable(20) %6, i32 noundef 8, ptr noundef nonnull align 1 dereferenceable(1) %3, ptr noundef nonnull align 1 dereferenceable(1) %4)
  call void @llvm.lifetime.end.p0(i64 1, ptr %4) #3
  call void @llvm.lifetime.end.p0(i64 1, ptr %3) #3
  ret void
}

; Function Attrs: mustprogress nounwind uwtable
define linkonce_odr hidden void @_ZN10ptr_vectorI4exprEC2Ev(ptr noundef nonnull align 8 dereferenceable(8) %0) unnamed_addr #6 comdat align 2 {
  %2 = alloca ptr, align 8
  store ptr %0, ptr %2, align 8, !tbaa !93
  %3 = load ptr, ptr %2, align 8
  call void @_ZN6vectorIP4exprLb0EjEC2Ev(ptr noundef nonnull align 8 dereferenceable(8) %3) #3
  ret void
}

; Function Attrs: mustprogress uwtable
define linkonce_odr hidden void @_ZN10ref_vectorI4expr11ast_managerEC2ERS1_(ptr noundef nonnull align 8 dereferenceable(16) %0, ptr noundef nonnull align 8 dereferenceable(976) %1) unnamed_addr #4 comdat align 2 {
  %3 = alloca ptr, align 8
  %4 = alloca ptr, align 8
  %5 = alloca %class.ref_manager_wrapper, align 8
  store ptr %0, ptr %3, align 8, !tbaa !91
  store ptr %1, ptr %4, align 8, !tbaa !65
  %6 = load ptr, ptr %3, align 8
  call void @llvm.lifetime.start.p0(i64 8, ptr %5) #3
  %7 = load ptr, ptr %4, align 8, !tbaa !65
  call void @_ZN19ref_manager_wrapperI4expr11ast_managerEC2ERS1_(ptr noundef nonnull align 8 dereferenceable(8) %5, ptr noundef nonnull align 8 dereferenceable(976) %7)
  call void @_ZN15ref_vector_coreI4expr19ref_manager_wrapperIS0_11ast_managerEEC2ERKS3_(ptr noundef nonnull align 8 dereferenceable(16) %6, ptr noundef nonnull align 8 dereferenceable(8) %5)
  call void @llvm.lifetime.end.p0(i64 8, ptr %5) #3
  ret void
}

; Function Attrs: mustprogress uwtable
define linkonce_odr hidden void @_ZN15expr_abstractorC2ER11ast_manager(ptr noundef nonnull align 8 dereferenceable(64) %0, ptr noundef nonnull align 8 dereferenceable(976) %1) unnamed_addr #4 comdat align 2 personality ptr @__gxx_personality_v0 {
  %3 = alloca ptr, align 8
  %4 = alloca ptr, align 8
  %5 = alloca ptr, align 8
  %6 = alloca i32, align 4
  store ptr %0, ptr %3, align 8, !tbaa !3
  store ptr %1, ptr %4, align 8, !tbaa !65
  %7 = load ptr, ptr %3, align 8
  %8 = getelementptr inbounds nuw %class.expr_abstractor, ptr %7, i32 0, i32 0
  %9 = load ptr, ptr %4, align 8, !tbaa !65
  store ptr %9, ptr %8, align 8, !tbaa !65
  %10 = getelementptr inbounds nuw %class.expr_abstractor, ptr %7, i32 0, i32 1
  %11 = load ptr, ptr %4, align 8, !tbaa !65
  call void @_ZN10ref_vectorI4expr11ast_managerEC2ERS1_(ptr noundef nonnull align 8 dereferenceable(16) %10, ptr noundef nonnull align 8 dereferenceable(976) %11)
  %12 = getelementptr inbounds nuw %class.expr_abstractor, ptr %7, i32 0, i32 2
  call void @_ZN10ptr_vectorI4exprEC2Ev(ptr noundef nonnull align 8 dereferenceable(8) %12) #3
  %13 = getelementptr inbounds nuw %class.expr_abstractor, ptr %7, i32 0, i32 3
  call void @_ZN10ptr_vectorI4exprEC2Ev(ptr noundef nonnull align 8 dereferenceable(8) %13) #3
  %14 = getelementptr inbounds nuw %class.expr_abstractor, ptr %7, i32 0, i32 4
  invoke void @_ZN7obj_mapI4exprPS0_EC2Ev(ptr noundef nonnull align 8 dereferenceable(24) %14)
          to label %15 unwind label %16

15:                                               ; preds = %2
  ret void

16:                                               ; preds = %2
  %17 = landingpad { ptr, i32 }
          cleanup
  %18 = extractvalue { ptr, i32 } %17, 0
  store ptr %18, ptr %5, align 8
  %19 = extractvalue { ptr, i32 } %17, 1
  store i32 %19, ptr %6, align 4
  call void @_ZN6vectorIP4exprLb0EjED2Ev(ptr noundef nonnull align 8 dereferenceable(8) %13) #3
  call void @_ZN6vectorIP4exprLb0EjED2Ev(ptr noundef nonnull align 8 dereferenceable(8) %12) #3
  call void @_ZN15ref_vector_coreI4expr19ref_manager_wrapperIS0_11ast_managerEED2Ev(ptr noundef nonnull align 8 dereferenceable(16) %10) #3
  br label %20

20:                                               ; preds = %16
  %21 = load ptr, ptr %5, align 8
  %22 = load i32, ptr %6, align 4
  %23 = insertvalue { ptr, i32 } poison, ptr %21, 0
  %24 = insertvalue { ptr, i32 } %23, i32 %22, 1
  resume { ptr, i32 } %24
}

; Function Attrs: mustprogress uwtable
define hidden void @_Z13expr_abstractR11ast_managerjjPKP4exprS2_R7obj_refIS1_S_E(ptr noundef nonnull align 8 dereferenceable(976) %0, i32 noundef %1, i32 noundef %2, ptr noundef %3, ptr noundef %4, ptr noundef nonnull align 8 dereferenceable(16) %5) #4 personality ptr @__gxx_personality_v0 {
  %7 = alloca ptr, align 8
  %8 = alloca i32, align 4
  %9 = alloca i32, align 4
  %10 = alloca ptr, align 8
  %11 = alloca ptr, align 8
  %12 = alloca ptr, align 8
  %13 = alloca %class.expr_abstractor, align 8
  %14 = alloca ptr, align 8
  %15 = alloca i32, align 4
  store ptr %0, ptr %7, align 8, !tbaa !65
  store i32 %1, ptr %8, align 4, !tbaa !8
  store i32 %2, ptr %9, align 4, !tbaa !8
  store ptr %3, ptr %10, align 8, !tbaa !10
  store ptr %4, ptr %11, align 8, !tbaa !13
  store ptr %5, ptr %12, align 8, !tbaa !15
  call void @llvm.lifetime.start.p0(i64 64, ptr %13) #3
  %16 = load ptr, ptr %7, align 8, !tbaa !65
  call void @_ZN15expr_abstractorC2ER11ast_manager(ptr noundef nonnull align 8 dereferenceable(64) %13, ptr noundef nonnull align 8 dereferenceable(976) %16)
  %17 = load i32, ptr %8, align 4, !tbaa !8
  %18 = load i32, ptr %9, align 4, !tbaa !8
  %19 = load ptr, ptr %10, align 8, !tbaa !10
  %20 = load ptr, ptr %11, align 8, !tbaa !13
  %21 = load ptr, ptr %12, align 8, !tbaa !15
  invoke void @_ZN15expr_abstractorclEjjPKP4exprS1_R7obj_refIS0_11ast_managerE(ptr noundef nonnull align 8 dereferenceable(64) %13, i32 noundef %17, i32 noundef %18, ptr noundef %19, ptr noundef %20, ptr noundef nonnull align 8 dereferenceable(16) %21)
          to label %22 unwind label %23

22:                                               ; preds = %6
  call void @_ZN15expr_abstractorD2Ev(ptr noundef nonnull align 8 dereferenceable(64) %13) #3
  call void @llvm.lifetime.end.p0(i64 64, ptr %13) #3
  ret void

23:                                               ; preds = %6
  %24 = landingpad { ptr, i32 }
          cleanup
  %25 = extractvalue { ptr, i32 } %24, 0
  store ptr %25, ptr %14, align 8
  %26 = extractvalue { ptr, i32 } %24, 1
  store i32 %26, ptr %15, align 4
  call void @_ZN15expr_abstractorD2Ev(ptr noundef nonnull align 8 dereferenceable(64) %13) #3
  call void @llvm.lifetime.end.p0(i64 64, ptr %13) #3
  br label %27

27:                                               ; preds = %23
  %28 = load ptr, ptr %14, align 8
  %29 = load i32, ptr %15, align 4
  %30 = insertvalue { ptr, i32 } poison, ptr %28, 0
  %31 = insertvalue { ptr, i32 } %30, i32 %29, 1
  resume { ptr, i32 } %31
}