; Function Attrs: mustprogress uwtable
define hidden void @_Z13expr_abstractR11ast_managerjjPKP4exprS2_R7obj_refIS1_S_E(ptr noundef nonnull align 8 dereferenceable(976) %0, i32 noundef %1, i32 noundef %2, ptr noundef readonly captures(none) %3, ptr noundef %4, ptr noundef nonnull align 8 captures(none) dereferenceable(16) %5) local_unnamed_addr #3 personality ptr @__gxx_personality_v0 {
  %7 = alloca %class.expr_abstractor, align 8
  call void @llvm.lifetime.start.p0(i64 64, ptr nonnull %7) #18
  store ptr %0, ptr %7, align 8, !tbaa !50
  %8 = getelementptr inbounds nuw i8, ptr %7, i64 8
  %9 = ptrtoint ptr %0 to i64
  store i64 %9, ptr %8, align 8, !tbaa !50
  %10 = getelementptr inbounds nuw i8, ptr %7, i64 16
  call void @llvm.memset.p0.i64(ptr noundef nonnull align 8 dereferenceable(24) %10, i8 0, i64 24, i1 false)
  %11 = invoke noalias noundef ptr @_ZN6memory8allocateEm(i64 noundef 128)
          to label %_ZN15expr_abstractorC2ER11ast_manager.exit unwind label %12

common.resume:                                    ; preds = %21, %12
  %common.resume.op = phi { ptr, i32 } [ %13, %12 ], [ %22, %21 ]
  resume { ptr, i32 } %common.resume.op

12:                                               ; preds = %6
  %13 = landingpad { ptr, i32 }
          cleanup
  %14 = getelementptr inbounds nuw i8, ptr %7, i64 32
  %15 = getelementptr inbounds nuw i8, ptr %7, i64 24
  call void @_ZN6vectorIP4exprLb0EjED2Ev(ptr noundef nonnull align 8 dereferenceable(8) %14) #18
  call void @_ZN6vectorIP4exprLb0EjED2Ev(ptr noundef nonnull align 8 dereferenceable(8) %15) #18
  call void @_ZN15ref_vector_coreI4expr19ref_manager_wrapperIS0_11ast_managerEED2Ev(ptr noundef nonnull align 8 dereferenceable(16) %8) #18
  br label %common.resume

_ZN15expr_abstractorC2ER11ast_manager.exit:       ; preds = %6
  %16 = getelementptr inbounds nuw i8, ptr %7, i64 40
  tail call void @llvm.memset.p0.i64(ptr noundef nonnull align 8 dereferenceable(128) %11, i8 0, i64 128, i1 false)
  store ptr %11, ptr %16, align 8, !tbaa !43
  %17 = getelementptr inbounds nuw i8, ptr %7, i64 48
  store i32 8, ptr %17, align 8, !tbaa !42
  %18 = getelementptr inbounds nuw i8, ptr %7, i64 52
  store i32 0, ptr %18, align 4, !tbaa !69
  %19 = getelementptr inbounds nuw i8, ptr %7, i64 56
  store i32 0, ptr %19, align 8, !tbaa !71
  invoke void @_ZN15expr_abstractorclEjjPKP4exprS1_R7obj_refIS0_11ast_managerE(ptr noundef nonnull align 8 dereferenceable(64) %7, i32 noundef %1, i32 noundef %2, ptr noundef %3, ptr noundef %4, ptr noundef nonnull align 8 dereferenceable(16) %5)
          to label %20 unwind label %21

20:                                               ; preds = %_ZN15expr_abstractorC2ER11ast_manager.exit
  call void @_ZN15expr_abstractorD2Ev(ptr noundef nonnull align 8 dereferenceable(64) %7) #18
  call void @llvm.lifetime.end.p0(i64 64, ptr nonnull %7) #18
  ret void

21:                                               ; preds = %_ZN15expr_abstractorC2ER11ast_manager.exit
  %22 = landingpad { ptr, i32 }
          cleanup
  call void @_ZN15expr_abstractorD2Ev(ptr noundef nonnull align 8 dereferenceable(64) %7) #18
  call void @llvm.lifetime.end.p0(i64 64, ptr nonnull %7) #18
  br label %common.resume
}